; Function Attrs: null_pointer_is_valid sspstrong uwtable
define internal i32 @IWbemLevel1Login_dissect_element_IWbemServices_services_(ptr noundef %0, i32 noundef %1, i32 %2, ptr noundef %3, ptr noundef %4, ptr noundef %5, ptr noundef %6) #0 {
  %8 = load i32, ptr @hf_IWbemLevel1Login_WBEMLogin_ppNamespace, align 4
  %9 = tail call ptr @proto_tree_add_item(ptr noundef %4, i32 noundef %8, ptr noundef %0, i32 noundef %1, i32 noundef 0, i32 noundef 0)
  %10 = load i32, ptr @ett_IWbemLevel1Login_IWbemServices, align 4
  %11 = tail call ptr @proto_item_add_subtree(ptr noundef %9, i32 noundef %10)
  %12 = load i32, ptr @hf_IWbemLevel1Login_WBEMLogin_ppNamespace, align 4
  %13 = tail call i32 @dissect_dcom_OBJREF(ptr noundef %0, i32 noundef %1, ptr noundef %3, ptr noundef %11, ptr noundef %5, ptr noundef %6, i32 noundef %12, ptr noundef null)
  ret i32 %13
}